target datalayout = "e-m:e-p270:32:32-p271:32:32-p272:64:64-i64:64-i128:128-f80:128-n8:16:32:64-S128"
target triple = "x86_64-pc-linux-gnu"

%struct.hwloc__xml_import_state_s = type { ptr, ptr, [32 x i8] }
%struct._xmlNode = type { ptr, i32, ptr, ptr, ptr, ptr, ptr, ptr, ptr, ptr, ptr, ptr, ptr, ptr, i16, i16 }
%struct.hwloc__libxml_import_state_data_s = type { ptr, ptr, ptr }

@.str.2 = private unnamed_addr constant [1 x i8] zeroinitializer, align 1

; Function Attrs: nounwind uwtable
define internal i32 @hwloc__libxml_import_get_content(ptr noundef %0, ptr noundef %1, i64 noundef %2) #0 {
  %4 = alloca i32, align 4
  %5 = alloca ptr, align 8
  %6 = alloca ptr, align 8
  %7 = alloca i64, align 8
  %8 = alloca ptr, align 8
  %9 = alloca ptr, align 8
  %10 = alloca i64, align 8
  %11 = alloca i32, align 4
  store ptr %0, ptr %5, align 8, !tbaa !30
  store ptr %1, ptr %6, align 8, !tbaa !25
  store i64 %2, ptr %7, align 8, !tbaa !3
  call void @llvm.lifetime.start.p0(i64 8, ptr %8) #7
  %12 = load ptr, ptr %5, align 8, !tbaa !30
  %13 = getelementptr inbounds nuw %struct.hwloc__xml_import_state_s, ptr %12, i32 0, i32 2
  %14 = getelementptr inbounds [32 x i8], ptr %13, i64 0, i64 0
  store ptr %14, ptr %8, align 8, !tbaa !34
  call void @llvm.lifetime.start.p0(i64 8, ptr %9) #7
  call void @llvm.lifetime.start.p0(i64 8, ptr %10) #7
  %15 = load ptr, ptr %8, align 8, !tbaa !34
  %16 = getelementptr inbounds nuw %struct.hwloc__libxml_import_state_data_s, ptr %15, i32 0, i32 0
  %17 = load ptr, ptr %16, align 8, !tbaa !59
  %18 = getelementptr inbounds nuw %struct._xmlNode, ptr %17, i32 0, i32 3
  %19 = load ptr, ptr %18, align 8, !tbaa !60
  store ptr %19, ptr %9, align 8, !tbaa !46
  %20 = load ptr, ptr %9, align 8, !tbaa !46
  %21 = icmp ne ptr %20, null
  br i1 %21, label %22, label %27

22:                                               ; preds = %3
  %23 = load ptr, ptr %9, align 8, !tbaa !46
  %24 = getelementptr inbounds nuw %struct._xmlNode, ptr %23, i32 0, i32 1
  %25 = load i32, ptr %24, align 8, !tbaa !71
  %26 = icmp ne i32 %25, 3
  br i1 %26, label %27, label %33

27:                                               ; preds = %22, %3
  %28 = load i64, ptr %7, align 8, !tbaa !3
  %29 = icmp ne i64 %28, 0
  br i1 %29, label %30, label %31

30:                                               ; preds = %27
  store i32 -1, ptr %4, align 4
  store i32 1, ptr %11, align 4
  br label %47

31:                                               ; preds = %27
  %32 = load ptr, ptr %6, align 8, !tbaa !25
  store ptr @.str.2, ptr %32, align 8, !tbaa !7
  store i32 0, ptr %4, align 4
  store i32 1, ptr %11, align 4
  br label %47

33:                                               ; preds = %22
  %34 = load ptr, ptr %9, align 8, !tbaa !46
  %35 = getelementptr inbounds nuw %struct._xmlNode, ptr %34, i32 0, i32 10
  %36 = load ptr, ptr %35, align 8, !tbaa !72
  %37 = call i64 @strlen(ptr noundef %36) #9
  store i64 %37, ptr %10, align 8, !tbaa !3
  %38 = load i64, ptr %10, align 8, !tbaa !3
  %39 = load i64, ptr %7, align 8, !tbaa !3
  %40 = icmp ne i64 %38, %39
  br i1 %40, label %41, label %42

41:                                               ; preds = %33
  store i32 -1, ptr %4, align 4
  store i32 1, ptr %11, align 4
  br label %47

42:                                               ; preds = %33
  %43 = load ptr, ptr %9, align 8, !tbaa !46
  %44 = getelementptr inbounds nuw %struct._xmlNode, ptr %43, i32 0, i32 10
  %45 = load ptr, ptr %44, align 8, !tbaa !72
  %46 = load ptr, ptr %6, align 8, !tbaa !25
  store ptr %45, ptr %46, align 8, !tbaa !7
  store i32 1, ptr %4, align 4
  store i32 1, ptr %11, align 4
  br label %47

47:                                               ; preds = %42, %41, %31, %30
  call void @llvm.lifetime.end.p0(i64 8, ptr %10) #7
  call void @llvm.lifetime.end.p0(i64 8, ptr %9) #7
  call void @llvm.lifetime.end.p0(i64 8, ptr %8) #7
  %48 = load i32, ptr %4, align 4
  ret i32 %48
}