; Function Attrs: mustprogress nofree nounwind willreturn memory(read, argmem: readwrite, inaccessiblemem: none) uwtable
define internal range(i32 -1, 2) i32 @hwloc__libxml_import_get_content(ptr noundef readonly captures(none) %0, ptr noundef writeonly captures(none) %1, i64 noundef %2) #8 {
  %4 = getelementptr inbounds nuw i8, ptr %0, i64 16
  %5 = load ptr, ptr %4, align 8, !tbaa !39
  %6 = getelementptr inbounds nuw i8, ptr %5, i64 24
  %7 = load ptr, ptr %6, align 8, !tbaa !40
  %.not = icmp eq ptr %7, null
  br i1 %.not, label %11, label %8

8:                                                ; preds = %3
  %9 = getelementptr inbounds nuw i8, ptr %7, i64 8
  %10 = load i32, ptr %9, align 8, !tbaa !47
  %.not12 = icmp eq i32 %10, 3
  br i1 %.not12, label %12, label %11

11:                                               ; preds = %8, %3
  %.not14 = icmp eq i64 %2, 0
  br i1 %.not14, label %.sink.split, label %16

12:                                               ; preds = %8
  %13 = getelementptr inbounds nuw i8, ptr %7, i64 80
  %14 = load ptr, ptr %13, align 8, !tbaa !48
  %15 = tail call i64 @strlen(ptr noundef nonnull dereferenceable(1) %14) #14
  %.not13 = icmp eq i64 %15, %2
  br i1 %.not13, label %.sink.split, label %16

.sink.split:                                      ; preds = %12, %11
  %.sink = phi ptr [ @.str.2, %11 ], [ %14, %12 ]
  %.0.ph = phi i32 [ 0, %11 ], [ 1, %12 ]
  store ptr %.sink, ptr %1, align 8, !tbaa !15
  br label %16

16:                                               ; preds = %.sink.split, %12, %11
  %.0 = phi i32 [ -1, %11 ], [ -1, %12 ], [ %.0.ph, %.sink.split ]
  ret i32 %.0
}